ccopy_reg
_reconstructor
p0
(cmodels.student
Student
p1
c__builtin__
object
p2
Ntp3
Rp4
(dp5
Vname
p6
Vzhangs
p7
sVage
p8
L20L
sVsex
p9
Vmale
p10
sVsum_member
p11
L1L
sVtuition
p12
L3333L
sVnum_student
p13
L1L
sb.